#include <math.h>
#include <stdio.h>
#include <stdlib.h>
#include <string.h>

int main()
{
	int m,n,i,j,k,a[10][10];
	scanf("%d,%d",&m,&n);
	for(i=0;i<m;i++){
		for(j=0;j<n;j++){
			scanf("%d",&a[i][j]);
		}
	}
	for(i=0;i<m;i++){
		for(j=0;j<n;j++){
			for(k=0;k<m;k++){
				if(a[i][j]>a[k][j])
					break;
			}
			if(k<m)
				continue;
			for(k=0;k<n;k++){
				if(a[i][j]<a[i][k])
					break;
			}
			if(k<n)
				continue;
			printf("%d+%d\n",i,j);
			return 0;
		}
	}
	printf("No\n");
	return 0;
}